(lp0
(S'wall_collision'
p1
ccopy_reg
_reconstructor
p2
(cgenpy.rostime
Time
p3
c__builtin__
object
p4
Ntp5
Rp6
(lp7
I1529057213
aI924765110
abtp8
a(S'object_slip'
p9
g2
(g3
g4
Ntp10
Rp11
(lp12
I1529057244
aI614475965
abtp13
a.