(lp0
(I0
(ccopy_reg
_reconstructor
p1
(cgenpy.rostime
Time
p2
c__builtin__
object
p3
Ntp4
Rp5
(lp6
I1529057053
aI627984046
abg1
(g2
g3
Ntp7
Rp8
(lp9
I1529057065
aI787803888
abtp10
tp11
a(I3
(g8
g1
(g2
g3
Ntp12
Rp13
(lp14
I1529057073
aI187815904
abtp15
tp16
a(I0
(g13
g1
(g2
g3
Ntp17
Rp18
(lp19
I1529057076
aI657722949
abtp20
tp21
a(I4
(g18
g1
(g2
g3
Ntp22
Rp23
(lp24
I1529057080
aI657769918
abtp25
tp26
a(I0
(g23
g1
(g2
g3
Ntp27
Rp28
(lp29
I1529057083
aI777807950
abtp30
tp31
a(I5
(g28
g1
(g2
g3
Ntp32
Rp33
(lp34
I1529057087
aI697770118
abtp35
tp36
a(I0
(g33
g1
(g2
g3
Ntp37
Rp38
(lp39
I1529057088
aI47818899
abtp40
tp41
a(I7
(g38
g1
(g2
g3
Ntp42
Rp43
(lp44
I1529057093
aI668045043
abtp45
tp46
a(I0
(g43
g1
(g2
g3
Ntp47
Rp48
(lp49
I1529057093
aI687793970
abtp50
tp51
a(I-1
(g48
g1
(g2
g3
Ntp52
Rp53
(lp54
I1529057105
aI447808980
abtp55
tp56
a(I1001
(g53
g1
(g2
g3
Ntp57
Rp58
(lp59
I1529057110
aI467726945
abtp60
tp61
a(I-1
(g58
g1
(g2
g3
Ntp62
Rp63
(lp64
I1529057143
aI627844095
abtp65
tp66
a(I-2
(g63
g1
(g2
g3
Ntp67
Rp68
(lp69
I1529057143
aI647731065
abtp70
tp71
a(I0
(g68
g1
(g2
g3
Ntp72
Rp73
(lp74
I1529057143
aI737725973
abtp75
tp76
a(I3
(g73
g1
(g2
g3
Ntp77
Rp78
(lp79
I1529057155
aI487900972
abtp80
tp81
a(I0
(g78
g1
(g2
g3
Ntp82
Rp83
(lp84
I1529057157
aI87789058
abtp85
tp86
a.