(lp0
(I0
(ccopy_reg
_reconstructor
p1
(cgenpy.rostime
Time
p2
c__builtin__
object
p3
Ntp4
Rp5
(lp6
I1529055933
aI557707071
abg1
(g2
g3
Ntp7
Rp8
(lp9
I1529055945
aI507757902
abtp10
tp11
a(I3
(g8
g1
(g2
g3
Ntp12
Rp13
(lp14
I1529055953
aI67842960
abtp15
tp16
a(I0
(g13
g1
(g2
g3
Ntp17
Rp18
(lp19
I1529055956
aI377749919
abtp20
tp21
a(I4
(g18
g1
(g2
g3
Ntp22
Rp23
(lp24
I1529055962
aI97807884
abtp25
tp26
a(I0
(g23
g1
(g2
g3
Ntp27
Rp28
(lp29
I1529055965
aI277723073
abtp30
tp31
a(I5
(g28
g1
(g2
g3
Ntp32
Rp33
(lp34
I1529055969
aI617737054
abtp35
tp36
a(I0
(g33
g1
(g2
g3
Ntp37
Rp38
(lp39
I1529055970
aI187745094
abtp40
tp41
a(I7
(g38
g1
(g2
g3
Ntp42
Rp43
(lp44
I1529055976
aI67894935
abtp45
tp46
a(I0
(g43
g1
(g2
g3
Ntp47
Rp48
(lp49
I1529055976
aI157826900
abtp50
tp51
a(I-1
(g48
g1
(g2
g3
Ntp52
Rp53
(lp54
I1529055984
aI947796106
abtp55
tp56
a(I1001
(g53
g1
(g2
g3
Ntp57
Rp58
(lp59
I1529055989
aI967772960
abtp60
tp61
a(I-1
(g58
g1
(g2
g3
Ntp62
Rp63
(lp64
I1529056006
aI487725973
abtp65
tp66
a(I-2
(g63
g1
(g2
g3
Ntp67
Rp68
(lp69
I1529056006
aI497729063
abtp70
tp71
a(I0
(g68
g1
(g2
g3
Ntp72
Rp73
(lp74
I1529056006
aI617726087
abtp75
tp76
a(I3
(g73
g1
(g2
g3
Ntp77
Rp78
(lp79
I1529056013
aI347799062
abtp80
tp81
a.