(lp0
(I0
(ccopy_reg
_reconstructor
p1
(cgenpy.rostime
Time
p2
c__builtin__
object
p3
Ntp4
Rp5
(lp6
I1528114540
aI603486061
abg1
(g2
g3
Ntp7
Rp8
(lp9
I1528114551
aI713424921
abtp10
tp11
a(I3
(g8
g1
(g2
g3
Ntp12
Rp13
(lp14
I1528114558
aI483412981
abtp15
tp16
a(I0
(g13
g1
(g2
g3
Ntp17
Rp18
(lp19
I1528114561
aI733546972
abtp20
tp21
a(I4
(g18
g1
(g2
g3
Ntp22
Rp23
(lp24
I1528114566
aI113677024
abtp25
tp26
a(I0
(g23
g1
(g2
g3
Ntp27
Rp28
(lp29
I1528114569
aI343516111
abtp30
tp31
a(I5
(g28
g1
(g2
g3
Ntp32
Rp33
(lp34
I1528114572
aI543375968
abtp35
tp36
a(I0
(g33
g1
(g2
g3
Ntp37
Rp38
(lp39
I1528114572
aI553462028
abtp40
tp41
a(I-1
(g38
g1
(g2
g3
Ntp42
Rp43
(lp44
I1528114660
aI673501014
abtp45
tp46
a.