(lp0
(I0
(ccopy_reg
_reconstructor
p1
(cgenpy.rostime
Time
p2
c__builtin__
object
p3
Ntp4
Rp5
(lp6
I1529057372
aI707832098
abg1
(g2
g3
Ntp7
Rp8
(lp9
I1529057384
aI667716979
abtp10
tp11
a(I3
(g8
g1
(g2
g3
Ntp12
Rp13
(lp14
I1529057392
aI348264932
abtp15
tp16
a(I0
(g13
g1
(g2
g3
Ntp17
Rp18
(lp19
I1529057395
aI737762928
abtp20
tp21
a(I4
(g18
g1
(g2
g3
Ntp22
Rp23
(lp24
I1529057399
aI608253002
abtp25
tp26
a(I0
(g23
g1
(g2
g3
Ntp27
Rp28
(lp29
I1529057402
aI847711086
abtp30
tp31
a(I5
(g28
g1
(g2
g3
Ntp32
Rp33
(lp34
I1529057407
aI97848892
abtp35
tp36
a(I0
(g33
g1
(g2
g3
Ntp37
Rp38
(lp39
I1529057407
aI537723064
abtp40
tp41
a(I7
(g38
g1
(g2
g3
Ntp42
Rp43
(lp44
I1529057412
aI647736072
abtp45
tp46
a(I0
(g43
g1
(g2
g3
Ntp47
Rp48
(lp49
I1529057412
aI657830953
abtp50
tp51
a(I-1
(g48
g1
(g2
g3
Ntp52
Rp53
(lp54
I1529057423
aI257904052
abtp55
tp56
a(I1001
(g53
g1
(g2
g3
Ntp57
Rp58
(lp59
I1529057438
aI337932109
abtp60
tp61
a(I-1
(g58
g1
(g2
g3
Ntp62
Rp63
(lp64
I1529057450
aI687716007
abtp65
tp66
a(I-2
(g63
g1
(g2
g3
Ntp67
Rp68
(lp69
I1529057450
aI707745075
abtp70
tp71
a(I0
(g68
g1
(g2
g3
Ntp72
Rp73
(lp74
I1529057450
aI807719945
abtp75
tp76
a(I3
(g73
g1
(g2
g3
Ntp77
Rp78
(lp79
I1529057453
aI567742109
abtp80
tp81
a.