(lp0
(I0
(ccopy_reg
_reconstructor
p1
(cgenpy.rostime
Time
p2
c__builtin__
object
p3
Ntp4
Rp5
(lp6
I1528856007
aI621707916
abg1
(g2
g3
Ntp7
Rp8
(lp9
I1528856019
aI781514883
abtp10
tp11
a(I3
(g8
g1
(g2
g3
Ntp12
Rp13
(lp14
I1528856028
aI221618890
abtp15
tp16
a(I0
(g13
g1
(g2
g3
Ntp17
Rp18
(lp19
I1528856031
aI591555118
abtp20
tp21
a(I4
(g18
g1
(g2
g3
Ntp22
Rp23
(lp24
I1528856035
aI691821098
abtp25
tp26
a(I0
(g23
g1
(g2
g3
Ntp27
Rp28
(lp29
I1528856038
aI991436004
abtp30
tp31
a(I5
(g28
g1
(g2
g3
Ntp32
Rp33
(lp34
I1528856043
aI461579084
abtp35
tp36
a(I0
(g33
g1
(g2
g3
Ntp37
Rp38
(lp39
I1528856043
aI831584930
abtp40
tp41
a(I7
(g38
g1
(g2
g3
Ntp42
Rp43
(lp44
I1528856049
aI611444950
abtp45
tp46
a(I0
(g43
g1
(g2
g3
Ntp47
Rp48
(lp49
I1528856049
aI731452941
abtp50
tp51
a(I8
(g48
g1
(g2
g3
Ntp52
Rp53
(lp54
I1528856053
aI761579990
abtp55
tp56
a(I0
(g53
g1
(g2
g3
Ntp57
Rp58
(lp59
I1528856056
aI922787904
abtp60
tp61
a.