(lp0
(I0
(ccopy_reg
_reconstructor
p1
(cgenpy.rostime
Time
p2
c__builtin__
object
p3
Ntp4
Rp5
(lp6
I1528855821
aI901798009
abg1
(g2
g3
Ntp7
Rp8
(lp9
I1528855834
aI461488008
abtp10
tp11
a(I3
(g8
g1
(g2
g3
Ntp12
Rp13
(lp14
I1528855842
aI451524972
abtp15
tp16
a(I0
(g13
g1
(g2
g3
Ntp17
Rp18
(lp19
I1528855845
aI702171087
abtp20
tp21
a(I4
(g18
g1
(g2
g3
Ntp22
Rp23
(lp24
I1528855849
aI881367921
abtp25
tp26
a(I0
(g23
g1
(g2
g3
Ntp27
Rp28
(lp29
I1528855853
aI121659040
abtp30
tp31
a(I5
(g28
g1
(g2
g3
Ntp32
Rp33
(lp34
I1528855875
aI551403045
abtp35
tp36
a(I0
(g33
g1
(g2
g3
Ntp37
Rp38
(lp39
I1528855875
aI941504955
abtp40
tp41
a(I7
(g38
g1
(g2
g3
Ntp42
Rp43
(lp44
I1528855880
aI752479076
abtp45
tp46
a(I0
(g43
g1
(g2
g3
Ntp47
Rp48
(lp49
I1528855880
aI881470918
abtp50
tp51
a(I8
(g48
g1
(g2
g3
Ntp52
Rp53
(lp54
I1528855885
aI152046918
abtp55
tp56
a(I0
(g53
g1
(g2
g3
Ntp57
Rp58
(lp59
I1528855888
aI231364965
abtp60
tp61
a.